target datalayout = "e-m:e-p270:32:32-p271:32:32-p272:64:64-i64:64-i128:128-f80:128-n8:16:32:64-S128"
target triple = "x86_64-pc-linux-gnu"

; Function Attrs: nounwind uwtable
define internal i32 @gc_is_finalized_impl(ptr noundef %0, ptr noundef %1) #0 {
  %3 = alloca ptr, align 8
  %4 = alloca ptr, align 8
  store ptr %0, ptr %3, align 8, !tbaa !4
  store ptr %1, ptr %4, align 8, !tbaa !4
  %5 = load ptr, ptr %4, align 8, !tbaa !4
  %6 = call i32 @PyObject_GC_IsFinalized(ptr noundef %5)
  ret i32 %6
}

; Function Attrs: nounwind uwtable
define internal ptr @gc_is_finalized(ptr noundef %0, ptr noundef %1) #0 {
  %3 = alloca ptr, align 8
  %4 = alloca ptr, align 8
  %5 = alloca ptr, align 8
  %6 = alloca i32, align 4
  store ptr %0, ptr %3, align 8, !tbaa !4
  store ptr %1, ptr %4, align 8, !tbaa !4
  call void @llvm.lifetime.start.p0(i64 8, ptr %5) #7
  store ptr null, ptr %5, align 8, !tbaa !4
  call void @llvm.lifetime.start.p0(i64 4, ptr %6) #7
  %7 = load ptr, ptr %3, align 8, !tbaa !4
  %8 = load ptr, ptr %4, align 8, !tbaa !4
  %9 = call i32 @gc_is_finalized_impl(ptr noundef %7, ptr noundef %8)
  store i32 %9, ptr %6, align 4, !tbaa !9
  %10 = load i32, ptr %6, align 4, !tbaa !9
  %11 = icmp eq i32 %10, -1
  br i1 %11, label %12, label %16

12:                                               ; preds = %2
  %13 = call ptr @PyErr_Occurred()
  %14 = icmp ne ptr %13, null
  br i1 %14, label %15, label %16

15:                                               ; preds = %12
  br label %20

16:                                               ; preds = %12, %2
  %17 = load i32, ptr %6, align 4, !tbaa !9
  %18 = sext i32 %17 to i64
  %19 = call ptr @PyBool_FromLong(i64 noundef %18)
  store ptr %19, ptr %5, align 8, !tbaa !4
  br label %20

20:                                               ; preds = %16, %15
  %21 = load ptr, ptr %5, align 8, !tbaa !4
  call void @llvm.lifetime.end.p0(i64 4, ptr %6) #7
  call void @llvm.lifetime.end.p0(i64 8, ptr %5) #7
  ret ptr %21
}